target datalayout = "e-m:e-p270:32:32-p271:32:32-p272:64:64-i64:64-i128:128-f80:128-n8:16:32:64-S128"
target triple = "x86_64-pc-linux-gnu"

%struct.Gia_Man_t_ = type { ptr, ptr, i32, i32, i32, i32, ptr, ptr, i32, i32, i32, ptr, ptr, %struct.Vec_Int_t_, %struct.Vec_Int_t_, i32, i32, i32, %struct.Vec_Int_t_, ptr, ptr, ptr, i32, i32, i32, i32, ptr, ptr, ptr, ptr, ptr, i32, i32, ptr, i32, ptr, ptr, ptr, ptr, ptr, ptr, ptr, ptr, ptr, ptr, ptr, ptr, ptr, ptr, ptr, ptr, ptr, ptr, %struct.Vec_Int_t_, %struct.Vec_Int_t_, ptr, ptr, ptr, ptr, ptr, ptr, ptr, ptr, ptr, ptr, ptr, ptr, ptr, ptr, ptr, ptr, ptr, ptr, ptr, ptr, ptr, i32, float, float, ptr, ptr, i32, ptr, ptr, ptr, ptr, ptr, ptr, ptr, ptr, ptr, ptr, ptr, ptr, ptr, ptr, ptr, i64, i64, ptr, ptr, i32, i32, i32, i32, i32, i32, i32, i32, i32, i32, i32, i32, ptr, ptr, ptr, ptr, ptr, ptr, ptr, ptr, i32, i32, i32, ptr, i32, i32, ptr, ptr, ptr, ptr, ptr, ptr, i32, i32, ptr, %struct.Vec_Int_t_, %struct.Vec_Int_t_, %struct.Vec_Int_t_, ptr, ptr, ptr, i32, i32, i32, i32, ptr, ptr, ptr, ptr, ptr }
%struct.Vec_Int_t_ = type { i32, i32, ptr }

@.str = private unnamed_addr constant [51 x i8] c"Something did not work out with the command \22%s\22.\0A\00", align 1

; Function Attrs: inlinehint nounwind uwtable
define internal i32 @Vec_IntSize(ptr noundef %0) #3 {
  %2 = alloca ptr, align 8
  store ptr %0, ptr %2, align 8, !tbaa !36
  %3 = load ptr, ptr %2, align 8, !tbaa !36
  %4 = getelementptr inbounds nuw %struct.Vec_Int_t_, ptr %3, i32 0, i32 1
  %5 = load i32, ptr %4, align 4, !tbaa !40
  ret i32 %5
}

; Function Attrs: inlinehint nounwind uwtable
define internal i32 @Gia_ManAndNum(ptr noundef %0) #3 {
  %2 = alloca ptr, align 8
  store ptr %0, ptr %2, align 8, !tbaa !3
  %3 = load ptr, ptr %2, align 8, !tbaa !3
  %4 = getelementptr inbounds nuw %struct.Gia_Man_t_, ptr %3, i32 0, i32 4
  %5 = load i32, ptr %4, align 8, !tbaa !14
  %6 = load ptr, ptr %2, align 8, !tbaa !3
  %7 = getelementptr inbounds nuw %struct.Gia_Man_t_, ptr %6, i32 0, i32 11
  %8 = load ptr, ptr %7, align 8, !tbaa !33
  %9 = call i32 @Vec_IntSize(ptr noundef %8)
  %10 = sub nsw i32 %5, %9
  %11 = load ptr, ptr %2, align 8, !tbaa !3
  %12 = getelementptr inbounds nuw %struct.Gia_Man_t_, ptr %11, i32 0, i32 12
  %13 = load ptr, ptr %12, align 8, !tbaa !34
  %14 = call i32 @Vec_IntSize(ptr noundef %13)
  %15 = sub nsw i32 %10, %14
  %16 = sub nsw i32 %15, 1
  ret i32 %16
}

; Function Attrs: nounwind uwtable
define ptr @Gia_StochProcessSingle(ptr noundef %0, ptr noundef %1, i32 noundef %2, i32 noundef %3) #0 {
  %5 = alloca ptr, align 8
  %6 = alloca ptr, align 8
  %7 = alloca ptr, align 8
  %8 = alloca i32, align 4
  %9 = alloca i32, align 4
  %10 = alloca ptr, align 8
  %11 = alloca ptr, align 8
  %12 = alloca i32, align 4
  store ptr %0, ptr %6, align 8, !tbaa !3
  store ptr %1, ptr %7, align 8, !tbaa !8
  store i32 %2, ptr %8, align 4, !tbaa !10
  store i32 %3, ptr %9, align 4, !tbaa !10
  call void @llvm.lifetime.start.p0(i64 8, ptr %10) #12
  call void @llvm.lifetime.start.p0(i64 8, ptr %11) #12
  %13 = load ptr, ptr %6, align 8, !tbaa !3
  %14 = call ptr @Gia_ManDup(ptr noundef %13)
  store ptr %14, ptr %11, align 8, !tbaa !3
  %15 = call ptr (...) @Abc_FrameGetGlobalFrame()
  %16 = load ptr, ptr %6, align 8, !tbaa !3
  %17 = call ptr @Gia_ManDup(ptr noundef %16)
  call void @Abc_FrameUpdateGia(ptr noundef %15, ptr noundef %17)
  %18 = call i32 (...) @Abc_FrameIsBatchMode()
  %19 = icmp ne i32 %18, 0
  br i1 %19, label %20, label %28

20:                                               ; preds = %4
  %21 = call ptr (...) @Abc_FrameGetGlobalFrame()
  %22 = load ptr, ptr %7, align 8, !tbaa !8
  %23 = call i32 @Cmd_CommandExecute(ptr noundef %21, ptr noundef %22)
  %24 = icmp ne i32 %23, 0
  br i1 %24, label %25, label %27

25:                                               ; preds = %20
  %26 = load ptr, ptr %7, align 8, !tbaa !8
  call void (i32, ptr, ...) @Abc_Print(i32 noundef 1, ptr noundef @.str, ptr noundef %26)
  store ptr null, ptr %5, align 8
  store i32 1, ptr %12, align 4
  br label %50

27:                                               ; preds = %20
  br label %36

28:                                               ; preds = %4
  call void @Abc_FrameSetBatchMode(i32 noundef 1)
  %29 = call ptr (...) @Abc_FrameGetGlobalFrame()
  %30 = load ptr, ptr %7, align 8, !tbaa !8
  %31 = call i32 @Cmd_CommandExecute(ptr noundef %29, ptr noundef %30)
  %32 = icmp ne i32 %31, 0
  br i1 %32, label %33, label %35

33:                                               ; preds = %28
  %34 = load ptr, ptr %7, align 8, !tbaa !8
  call void (i32, ptr, ...) @Abc_Print(i32 noundef 1, ptr noundef @.str, ptr noundef %34)
  store ptr null, ptr %5, align 8
  store i32 1, ptr %12, align 4
  br label %50

35:                                               ; preds = %28
  call void @Abc_FrameSetBatchMode(i32 noundef 0)
  br label %36

36:                                               ; preds = %35, %27
  %37 = call ptr (...) @Abc_FrameGetGlobalFrame()
  %38 = call ptr @Abc_FrameReadGia(ptr noundef %37)
  store ptr %38, ptr %10, align 8, !tbaa !3
  %39 = load ptr, ptr %11, align 8, !tbaa !3
  %40 = call i32 @Gia_ManAndNum(ptr noundef %39)
  %41 = load ptr, ptr %10, align 8, !tbaa !3
  %42 = call i32 @Gia_ManAndNum(ptr noundef %41)
  %43 = icmp sgt i32 %40, %42
  br i1 %43, label %44, label %48

44:                                               ; preds = %36
  %45 = load ptr, ptr %11, align 8, !tbaa !3
  call void @Gia_ManStop(ptr noundef %45)
  %46 = load ptr, ptr %10, align 8, !tbaa !3
  %47 = call ptr @Gia_ManDup(ptr noundef %46)
  store ptr %47, ptr %11, align 8, !tbaa !3
  br label %48

48:                                               ; preds = %44, %36
  %49 = load ptr, ptr %11, align 8, !tbaa !3
  store ptr %49, ptr %5, align 8
  store i32 1, ptr %12, align 4
  br label %50

50:                                               ; preds = %48, %33, %25
  call void @llvm.lifetime.end.p0(i64 8, ptr %11) #12
  call void @llvm.lifetime.end.p0(i64 8, ptr %10) #12
  %51 = load ptr, ptr %5, align 8
  ret ptr %51
}