; Function Attrs: nounwind uwtable
define ptr @Gia_StochProcessSingle(ptr noundef %0, ptr noundef %1, i32 %2, i32 %3) local_unnamed_addr #0 {
  %5 = tail call ptr @Gia_ManDup(ptr noundef %0) #18
  %6 = tail call ptr (...) @Abc_FrameGetGlobalFrame() #18
  %7 = tail call ptr @Gia_ManDup(ptr noundef %0) #18
  tail call void @Abc_FrameUpdateGia(ptr noundef %6, ptr noundef %7) #18
  %8 = tail call i32 (...) @Abc_FrameIsBatchMode() #18
  %.not = icmp eq i32 %8, 0
  br i1 %.not, label %13, label %9

9:                                                ; preds = %4
  %10 = tail call ptr (...) @Abc_FrameGetGlobalFrame() #18
  %11 = tail call i32 @Cmd_CommandExecute(ptr noundef %10, ptr noundef %1) #18
  %.not14 = icmp eq i32 %11, 0
  br i1 %.not14, label %18, label %12

12:                                               ; preds = %9
  tail call void (i32, ptr, ...) @Abc_Print(i32 poison, ptr noundef nonnull @.str, ptr noundef %1)
  br label %44

13:                                               ; preds = %4
  tail call void @Abc_FrameSetBatchMode(i32 noundef 1) #18
  %14 = tail call ptr (...) @Abc_FrameGetGlobalFrame() #18
  %15 = tail call i32 @Cmd_CommandExecute(ptr noundef %14, ptr noundef %1) #18
  %.not13 = icmp eq i32 %15, 0
  br i1 %.not13, label %17, label %16

16:                                               ; preds = %13
  tail call void (i32, ptr, ...) @Abc_Print(i32 poison, ptr noundef nonnull @.str, ptr noundef %1)
  br label %44

17:                                               ; preds = %13
  tail call void @Abc_FrameSetBatchMode(i32 noundef 0) #18
  br label %18

18:                                               ; preds = %9, %17
  %19 = tail call ptr (...) @Abc_FrameGetGlobalFrame() #18
  %20 = tail call ptr @Abc_FrameReadGia(ptr noundef %19) #18
  %21 = getelementptr inbounds nuw i8, ptr %5, i64 24
  %22 = load i32, ptr %21, align 8, !tbaa !3
  %23 = getelementptr inbounds nuw i8, ptr %5, i64 64
  %24 = load ptr, ptr %23, align 8, !tbaa !28
  %25 = getelementptr i8, ptr %24, i64 4
  %.val.i = load i32, ptr %25, align 4, !tbaa !29
  %26 = getelementptr inbounds nuw i8, ptr %5, i64 72
  %27 = load ptr, ptr %26, align 8, !tbaa !30
  %28 = getelementptr i8, ptr %27, i64 4
  %.val3.i = load i32, ptr %28, align 4, !tbaa !29
  %29 = getelementptr inbounds nuw i8, ptr %20, i64 24
  %30 = load i32, ptr %29, align 8, !tbaa !3
  %31 = getelementptr inbounds nuw i8, ptr %20, i64 64
  %32 = load ptr, ptr %31, align 8, !tbaa !28
  %33 = getelementptr i8, ptr %32, i64 4
  %.val.i15 = load i32, ptr %33, align 4, !tbaa !29
  %34 = getelementptr inbounds nuw i8, ptr %20, i64 72
  %35 = load ptr, ptr %34, align 8, !tbaa !30
  %36 = getelementptr i8, ptr %35, i64 4
  %.val3.i16 = load i32, ptr %36, align 4, !tbaa !29
  %37 = sub i32 %.val.i, %22
  %38 = add i32 %37, %.val3.i
  %39 = sub i32 %.val.i15, %30
  %40 = add i32 %39, %.val3.i16
  %41 = icmp slt i32 %38, %40
  br i1 %41, label %42, label %44

42:                                               ; preds = %18
  tail call void @Gia_ManStop(ptr noundef nonnull %5) #18
  %43 = tail call ptr @Gia_ManDup(ptr noundef nonnull %20) #18
  br label %44

44:                                               ; preds = %18, %42, %16, %12
  %.012 = phi ptr [ null, %12 ], [ null, %16 ], [ %43, %42 ], [ %5, %18 ]
  ret ptr %.012
}